; Function Attrs: mustprogress uwtable
define void @_ZNK5faiss8IndexNSG11reconstructElPf(ptr nocapture noundef nonnull readonly align 8 dereferenceable(5132) %0, i64 noundef %1, ptr noundef %2) unnamed_addr #1 align 2 {
  %4 = getelementptr inbounds i8, ptr %0, i64 5096
  %5 = load ptr, ptr %4, align 8
  %6 = load ptr, ptr %5, align 8
  %7 = getelementptr inbounds i8, ptr %6, i64 80
  %8 = load ptr, ptr %7, align 8
  tail call void %8(ptr noundef nonnull align 8 dereferenceable(36) %5, i64 noundef %1, ptr noundef %2)
  ret void
}